target datalayout = "e-m:e-p270:32:32-p271:32:32-p272:64:64-i64:64-i128:128-f80:128-n8:16:32:64-S128"
target triple = "x86_64-pc-linux-gnu"

%struct.php_unserialize_data = type { ptr, ptr, ptr, ptr, ptr, i64, i64, %struct.var_entries }
%struct.var_entries = type { i64, ptr, [1018 x ptr] }

; Function Attrs: nounwind uwtable
define void @var_replace(ptr noundef %0, ptr noundef %1, ptr noundef %2) #0 {
  %4 = alloca ptr, align 8
  %5 = alloca ptr, align 8
  %6 = alloca ptr, align 8
  %7 = alloca i64, align 8
  %8 = alloca ptr, align 8
  store ptr %0, ptr %4, align 8
  store ptr %1, ptr %5, align 8
  store ptr %2, ptr %6, align 8
  %9 = load ptr, ptr %4, align 8
  %10 = load ptr, ptr %9, align 8
  %11 = getelementptr inbounds %struct.php_unserialize_data, ptr %10, i32 0, i32 7
  store ptr %11, ptr %8, align 8
  br label %12

12:                                               ; preds = %40, %3
  %13 = load ptr, ptr %8, align 8
  %14 = icmp ne ptr %13, null
  br i1 %14, label %15, label %44

15:                                               ; preds = %12
  store i64 0, ptr %7, align 8
  br label %16

16:                                               ; preds = %37, %15
  %17 = load i64, ptr %7, align 8
  %18 = load ptr, ptr %8, align 8
  %19 = getelementptr inbounds %struct.var_entries, ptr %18, i32 0, i32 0
  %20 = load i64, ptr %19, align 8
  %21 = icmp slt i64 %17, %20
  br i1 %21, label %22, label %40

22:                                               ; preds = %16
  %23 = load ptr, ptr %8, align 8
  %24 = getelementptr inbounds %struct.var_entries, ptr %23, i32 0, i32 2
  %25 = load i64, ptr %7, align 8
  %26 = getelementptr inbounds [1018 x ptr], ptr %24, i64 0, i64 %25
  %27 = load ptr, ptr %26, align 8
  %28 = load ptr, ptr %5, align 8
  %29 = icmp eq ptr %27, %28
  br i1 %29, label %30, label %36

30:                                               ; preds = %22
  %31 = load ptr, ptr %6, align 8
  %32 = load ptr, ptr %8, align 8
  %33 = getelementptr inbounds %struct.var_entries, ptr %32, i32 0, i32 2
  %34 = load i64, ptr %7, align 8
  %35 = getelementptr inbounds [1018 x ptr], ptr %33, i64 0, i64 %34
  store ptr %31, ptr %35, align 8
  br label %36

36:                                               ; preds = %30, %22
  br label %37

37:                                               ; preds = %36
  %38 = load i64, ptr %7, align 8
  %39 = add nsw i64 %38, 1
  store i64 %39, ptr %7, align 8
  br label %16

40:                                               ; preds = %16
  %41 = load ptr, ptr %8, align 8
  %42 = getelementptr inbounds %struct.var_entries, ptr %41, i32 0, i32 1
  %43 = load ptr, ptr %42, align 8
  store ptr %43, ptr %8, align 8
  br label %12

44:                                               ; preds = %12
  ret void
}