; Function Attrs: nofree norecurse nosync nounwind memory(readwrite, inaccessiblemem: none) uwtable
define void @var_replace(ptr nocapture noundef readonly %0, ptr noundef readnone %1, ptr noundef %2) local_unnamed_addr #5 {
  %4 = load ptr, ptr %0, align 8
  %5 = getelementptr inbounds i8, ptr %4, i64 56
  br label %.preheader

.preheader:                                       ; preds = %3, %._crit_edge
  %.013 = phi ptr [ %5, %3 ], [ %18, %._crit_edge ]
  %6 = load i64, ptr %.013, align 8
  %7 = icmp sgt i64 %6, 0
  br i1 %7, label %.lr.ph, label %._crit_edge

.lr.ph:                                           ; preds = %.preheader
  %8 = getelementptr inbounds i8, ptr %.013, i64 16
  br label %9

9:                                                ; preds = %.lr.ph, %14
  %.01112 = phi i64 [ 0, %.lr.ph ], [ %15, %14 ]
  %10 = getelementptr inbounds [1018 x ptr], ptr %8, i64 0, i64 %.01112
  %11 = load ptr, ptr %10, align 8
  %12 = icmp eq ptr %11, %1
  br i1 %12, label %13, label %14

13:                                               ; preds = %9
  store ptr %2, ptr %10, align 8
  br label %14

14:                                               ; preds = %9, %13
  %15 = add nuw nsw i64 %.01112, 1
  %16 = icmp slt i64 %15, %6
  br i1 %16, label %9, label %._crit_edge

._crit_edge:                                      ; preds = %14, %.preheader
  %17 = getelementptr inbounds i8, ptr %.013, i64 8
  %18 = load ptr, ptr %17, align 8
  %.not = icmp eq ptr %18, null
  br i1 %.not, label %19, label %.preheader

19:                                               ; preds = %._crit_edge
  ret void
}